target datalayout = "e-m:e-p270:32:32-p271:32:32-p272:64:64-i64:64-i128:128-f80:128-n8:16:32:64-S128"
target triple = "x86_64-pc-linux-gnu"

%struct.memory_bit_reader = type { ptr, i64, i64, i64, i32, i32 }

; Function Attrs: nounwind uwtable
define internal i32 @membr_fill(ptr noundef %0, i32 noundef %1) #0 {
  %3 = alloca i32, align 4
  %4 = alloca ptr, align 8
  %5 = alloca i32, align 4
  store ptr %0, ptr %4, align 8
  store i32 %1, ptr %5, align 4
  br label %6

6:                                                ; preds = %22, %2
  %7 = load ptr, ptr %4, align 8
  %8 = getelementptr inbounds %struct.memory_bit_reader, ptr %7, i32 0, i32 4
  %9 = load i32, ptr %8, align 8
  %10 = load i32, ptr %5, align 4
  %11 = icmp slt i32 %9, %10
  br i1 %11, label %12, label %20

12:                                               ; preds = %6
  %13 = load ptr, ptr %4, align 8
  %14 = getelementptr inbounds %struct.memory_bit_reader, ptr %13, i32 0, i32 2
  %15 = load i64, ptr %14, align 8
  %16 = load ptr, ptr %4, align 8
  %17 = getelementptr inbounds %struct.memory_bit_reader, ptr %16, i32 0, i32 1
  %18 = load i64, ptr %17, align 8
  %19 = icmp ult i64 %15, %18
  br label %20

20:                                               ; preds = %12, %6
  %21 = phi i1 [ false, %6 ], [ %19, %12 ]
  br i1 %21, label %22, label %44

22:                                               ; preds = %20
  %23 = load ptr, ptr %4, align 8
  %24 = getelementptr inbounds %struct.memory_bit_reader, ptr %23, i32 0, i32 3
  %25 = load i64, ptr %24, align 8
  %26 = shl i64 %25, 8
  %27 = load ptr, ptr %4, align 8
  %28 = getelementptr inbounds %struct.memory_bit_reader, ptr %27, i32 0, i32 0
  %29 = load ptr, ptr %28, align 8
  %30 = load ptr, ptr %4, align 8
  %31 = getelementptr inbounds %struct.memory_bit_reader, ptr %30, i32 0, i32 2
  %32 = load i64, ptr %31, align 8
  %33 = add i64 %32, 1
  store i64 %33, ptr %31, align 8
  %34 = getelementptr inbounds i8, ptr %29, i64 %32
  %35 = load i8, ptr %34, align 1
  %36 = zext i8 %35 to i64
  %37 = or i64 %26, %36
  %38 = load ptr, ptr %4, align 8
  %39 = getelementptr inbounds %struct.memory_bit_reader, ptr %38, i32 0, i32 3
  store i64 %37, ptr %39, align 8
  %40 = load ptr, ptr %4, align 8
  %41 = getelementptr inbounds %struct.memory_bit_reader, ptr %40, i32 0, i32 4
  %42 = load i32, ptr %41, align 8
  %43 = add nsw i32 %42, 8
  store i32 %43, ptr %41, align 8
  br label %6, !llvm.loop !61

44:                                               ; preds = %20
  %45 = load i32, ptr %5, align 4
  %46 = load ptr, ptr %4, align 8
  %47 = getelementptr inbounds %struct.memory_bit_reader, ptr %46, i32 0, i32 4
  %48 = load i32, ptr %47, align 8
  %49 = icmp sgt i32 %45, %48
  br i1 %49, label %50, label %53

50:                                               ; preds = %44
  %51 = load ptr, ptr %4, align 8
  %52 = getelementptr inbounds %struct.memory_bit_reader, ptr %51, i32 0, i32 5
  store i32 1, ptr %52, align 4
  store i32 0, ptr %3, align 4
  br label %54

53:                                               ; preds = %44
  store i32 1, ptr %3, align 4
  br label %54

54:                                               ; preds = %53, %50
  %55 = load i32, ptr %3, align 4
  ret i32 %55
}

; Function Attrs: nounwind uwtable
define internal i32 @membr_bits(ptr noundef %0, i32 noundef %1) #0 {
  %3 = alloca i32, align 4
  %4 = alloca ptr, align 8
  %5 = alloca i32, align 4
  store ptr %0, ptr %4, align 8
  store i32 %1, ptr %5, align 4
  %6 = load i32, ptr %5, align 4
  %7 = load ptr, ptr %4, align 8
  %8 = getelementptr inbounds %struct.memory_bit_reader, ptr %7, i32 0, i32 4
  %9 = load i32, ptr %8, align 8
  %10 = icmp sgt i32 %6, %9
  br i1 %10, label %11, label %22

11:                                               ; preds = %2
  %12 = load ptr, ptr %4, align 8
  %13 = getelementptr inbounds %struct.memory_bit_reader, ptr %12, i32 0, i32 5
  %14 = load i32, ptr %13, align 4
  %15 = icmp ne i32 %14, 0
  br i1 %15, label %21, label %16

16:                                               ; preds = %11
  %17 = load ptr, ptr %4, align 8
  %18 = load i32, ptr %5, align 4
  %19 = call i32 @membr_fill(ptr noundef %17, i32 noundef %18)
  %20 = icmp ne i32 %19, 0
  br i1 %20, label %22, label %21

21:                                               ; preds = %16, %11
  store i32 0, ptr %3, align 4
  br label %39

22:                                               ; preds = %16, %2
  %23 = load ptr, ptr %4, align 8
  %24 = getelementptr inbounds %struct.memory_bit_reader, ptr %23, i32 0, i32 3
  %25 = load i64, ptr %24, align 8
  %26 = load i32, ptr %5, align 4
  %27 = load ptr, ptr %4, align 8
  %28 = getelementptr inbounds %struct.memory_bit_reader, ptr %27, i32 0, i32 4
  %29 = load i32, ptr %28, align 8
  %30 = sub nsw i32 %29, %26
  store i32 %30, ptr %28, align 8
  %31 = zext i32 %30 to i64
  %32 = lshr i64 %25, %31
  %33 = load i32, ptr %5, align 4
  %34 = zext i32 %33 to i64
  %35 = shl i64 1, %34
  %36 = sub i64 %35, 1
  %37 = and i64 %32, %36
  %38 = trunc i64 %37 to i32
  store i32 %38, ptr %3, align 4
  br label %39

39:                                               ; preds = %22, %21
  %40 = load i32, ptr %3, align 4
  ret i32 %40
}

; Function Attrs: nounwind uwtable
define internal i32 @membr_next_rarvm_number(ptr noundef %0) #0 {
  %2 = alloca i32, align 4
  %3 = alloca ptr, align 8
  %4 = alloca i32, align 4
  store ptr %0, ptr %3, align 8
  %5 = load ptr, ptr %3, align 8
  %6 = call i32 @membr_bits(ptr noundef %5, i32 noundef 2)
  switch i32 %6, label %27 [
    i32 0, label %7
    i32 1, label %10
    i32 2, label %24
  ]

7:                                                ; preds = %1
  %8 = load ptr, ptr %3, align 8
  %9 = call i32 @membr_bits(ptr noundef %8, i32 noundef 4)
  store i32 %9, ptr %2, align 4
  br label %30

10:                                               ; preds = %1
  %11 = load ptr, ptr %3, align 8
  %12 = call i32 @membr_bits(ptr noundef %11, i32 noundef 8)
  store i32 %12, ptr %4, align 4
  %13 = load i32, ptr %4, align 4
  %14 = icmp uge i32 %13, 16
  br i1 %14, label %15, label %17

15:                                               ; preds = %10
  %16 = load i32, ptr %4, align 4
  store i32 %16, ptr %2, align 4
  br label %30

17:                                               ; preds = %10
  %18 = load i32, ptr %4, align 4
  %19 = shl i32 %18, 4
  %20 = or i32 -256, %19
  %21 = load ptr, ptr %3, align 8
  %22 = call i32 @membr_bits(ptr noundef %21, i32 noundef 4)
  %23 = or i32 %20, %22
  store i32 %23, ptr %2, align 4
  br label %30

24:                                               ; preds = %1
  %25 = load ptr, ptr %3, align 8
  %26 = call i32 @membr_bits(ptr noundef %25, i32 noundef 16)
  store i32 %26, ptr %2, align 4
  br label %30

27:                                               ; preds = %1
  %28 = load ptr, ptr %3, align 8
  %29 = call i32 @membr_bits(ptr noundef %28, i32 noundef 32)
  store i32 %29, ptr %2, align 4
  br label %30

30:                                               ; preds = %27, %24, %17, %15, %7
  %31 = load i32, ptr %2, align 4
  ret i32 %31
}