; Function Attrs: nofree norecurse nosync nounwind memory(read, argmem: readwrite, inaccessiblemem: none) uwtable
define internal fastcc i32 @membr_next_rarvm_number(ptr noundef nonnull captures(none) %0) unnamed_addr #15 {
  %2 = getelementptr inbounds nuw i8, ptr %0, i64 32
  %3 = load i32, ptr %2, align 8
  %4 = icmp slt i32 %3, 2
  br i1 %4, label %5, label %.membr_fill.exit_crit_edge.i

.membr_fill.exit_crit_edge.i:                     ; preds = %1
  %.phi.trans.insert.i = getelementptr inbounds nuw i8, ptr %0, i64 24
  %.pre.i = load i64, ptr %.phi.trans.insert.i, align 8
  br label %membr_bits.exit

5:                                                ; preds = %1
  %6 = getelementptr inbounds nuw i8, ptr %0, i64 36
  %7 = load i32, ptr %6, align 4
  %.not.i = icmp eq i32 %7, 0
  br i1 %.not.i, label %.lr.ph.i.i, label %membr_bits.exit.thread.thread

.lr.ph.i.i:                                       ; preds = %5
  %8 = getelementptr inbounds nuw i8, ptr %0, i64 16
  %9 = getelementptr inbounds nuw i8, ptr %0, i64 8
  %10 = load i64, ptr %9, align 8
  %11 = getelementptr inbounds nuw i8, ptr %0, i64 24
  %.promoted13.i.i = load i64, ptr %8, align 8
  br label %12

12:                                               ; preds = %16, %.lr.ph.i.i
  %13 = phi i64 [ %.promoted13.i.i, %.lr.ph.i.i ], [ %20, %16 ]
  %14 = phi i32 [ %3, %.lr.ph.i.i ], [ %25, %16 ]
  %15 = icmp ult i64 %13, %10
  br i1 %15, label %16, label %membr_fill.exit.thread.i

16:                                               ; preds = %12
  %17 = load i64, ptr %11, align 8
  %18 = shl i64 %17, 8
  %19 = load ptr, ptr %0, align 8
  %20 = add nuw i64 %13, 1
  store i64 %20, ptr %8, align 8
  %21 = getelementptr inbounds i8, ptr %19, i64 %13
  %22 = load i8, ptr %21, align 1
  %23 = zext i8 %22 to i64
  %24 = or disjoint i64 %18, %23
  store i64 %24, ptr %11, align 8
  %25 = add nsw i32 %14, 8
  store i32 %25, ptr %2, align 8
  %26 = icmp slt i32 %14, -6
  br i1 %26, label %12, label %membr_bits.exit, !llvm.loop !36

membr_fill.exit.thread.i:                         ; preds = %12
  store i32 1, ptr %6, align 4
  br label %membr_bits.exit.thread.thread

membr_bits.exit:                                  ; preds = %16, %.membr_fill.exit_crit_edge.i
  %27 = phi i32 [ %3, %.membr_fill.exit_crit_edge.i ], [ %25, %16 ]
  %.pre.i22 = phi i64 [ %.pre.i, %.membr_fill.exit_crit_edge.i ], [ %24, %16 ]
  %28 = add nsw i32 %27, -2
  store i32 %28, ptr %2, align 8
  %29 = zext nneg i32 %28 to i64
  %30 = lshr i64 %.pre.i22, %29
  %31 = trunc i64 %30 to i32
  %32 = and i32 %31, 3
  switch i32 %32, label %default.unreachable [
    i32 0, label %membr_bits.exit.thread
    i32 1, label %63
    i32 2, label %129
    i32 3, label %160
  ]

membr_bits.exit.thread:                           ; preds = %membr_bits.exit
  %33 = icmp samesign ult i32 %28, 4
  br i1 %33, label %membr_bits.exit.thread.thread, label %.membr_fill.exit_crit_edge.i10

.membr_fill.exit_crit_edge.i10:                   ; preds = %membr_bits.exit.thread
  %.phi.trans.insert.i11 = getelementptr inbounds nuw i8, ptr %0, i64 24
  %.pre.i12 = load i64, ptr %.phi.trans.insert.i11, align 8
  br label %membr_fill.exit.i13

membr_bits.exit.thread.thread:                    ; preds = %5, %membr_fill.exit.thread.i, %membr_bits.exit.thread
  %34 = phi i32 [ %28, %membr_bits.exit.thread ], [ %3, %5 ], [ %14, %membr_fill.exit.thread.i ]
  %35 = getelementptr inbounds nuw i8, ptr %0, i64 36
  %36 = load i32, ptr %35, align 4
  %.not.i15 = icmp eq i32 %36, 0
  br i1 %.not.i15, label %.lr.ph.i.i16, label %membr_bits.exit19

.lr.ph.i.i16:                                     ; preds = %membr_bits.exit.thread.thread
  %37 = getelementptr inbounds nuw i8, ptr %0, i64 16
  %38 = getelementptr inbounds nuw i8, ptr %0, i64 8
  %39 = load i64, ptr %38, align 8
  %40 = getelementptr inbounds nuw i8, ptr %0, i64 24
  %.promoted13.i.i17 = load i64, ptr %37, align 8
  br label %41

41:                                               ; preds = %45, %.lr.ph.i.i16
  %42 = phi i64 [ %.promoted13.i.i17, %.lr.ph.i.i16 ], [ %49, %45 ]
  %43 = phi i32 [ %34, %.lr.ph.i.i16 ], [ %54, %45 ]
  %44 = icmp ult i64 %42, %39
  br i1 %44, label %45, label %membr_fill.exit.thread.i18

45:                                               ; preds = %41
  %46 = load i64, ptr %40, align 8
  %47 = shl i64 %46, 8
  %48 = load ptr, ptr %0, align 8
  %49 = add nuw i64 %42, 1
  store i64 %49, ptr %37, align 8
  %50 = getelementptr inbounds i8, ptr %48, i64 %42
  %51 = load i8, ptr %50, align 1
  %52 = zext i8 %51 to i64
  %53 = or disjoint i64 %47, %52
  store i64 %53, ptr %40, align 8
  %54 = add nsw i32 %43, 8
  store i32 %54, ptr %2, align 8
  %55 = icmp slt i32 %43, -4
  br i1 %55, label %41, label %membr_fill.exit.i13, !llvm.loop !36

membr_fill.exit.thread.i18:                       ; preds = %41
  store i32 1, ptr %35, align 4
  br label %membr_bits.exit19

membr_fill.exit.i13:                              ; preds = %45, %.membr_fill.exit_crit_edge.i10
  %56 = phi i32 [ %28, %.membr_fill.exit_crit_edge.i10 ], [ %54, %45 ]
  %57 = phi i64 [ %.pre.i12, %.membr_fill.exit_crit_edge.i10 ], [ %53, %45 ]
  %58 = add nsw i32 %56, -4
  store i32 %58, ptr %2, align 8
  %59 = zext nneg i32 %58 to i64
  %60 = lshr i64 %57, %59
  %61 = trunc i64 %60 to i32
  %62 = and i32 %61, 15
  br label %membr_bits.exit19

63:                                               ; preds = %membr_bits.exit
  %64 = icmp samesign ult i32 %27, 10
  br i1 %64, label %66, label %.membr_fill.exit_crit_edge.i20

.membr_fill.exit_crit_edge.i20:                   ; preds = %63
  %65 = add nsw i32 %27, -10
  br label %membr_bits.exit29

66:                                               ; preds = %63
  %67 = getelementptr inbounds nuw i8, ptr %0, i64 36
  %68 = load i32, ptr %67, align 4
  %.not.i25 = icmp eq i32 %68, 0
  br i1 %.not.i25, label %.lr.ph.i.i26, label %membr_bits.exit29.thread

.lr.ph.i.i26:                                     ; preds = %66
  %69 = getelementptr inbounds nuw i8, ptr %0, i64 16
  %70 = getelementptr inbounds nuw i8, ptr %0, i64 8
  %71 = load i64, ptr %70, align 8
  %72 = getelementptr inbounds nuw i8, ptr %0, i64 24
  %.promoted13.i.i27 = load i64, ptr %69, align 8
  br label %73

73:                                               ; preds = %78, %.lr.ph.i.i26
  %74 = phi i64 [ %.pre.i22, %.lr.ph.i.i26 ], [ %85, %78 ]
  %75 = phi i64 [ %.promoted13.i.i27, %.lr.ph.i.i26 ], [ %81, %78 ]
  %76 = phi i32 [ %28, %.lr.ph.i.i26 ], [ %86, %78 ]
  %77 = icmp ult i64 %75, %71
  br i1 %77, label %78, label %membr_fill.exit.thread.i28

78:                                               ; preds = %73
  %79 = shl i64 %74, 8
  %80 = load ptr, ptr %0, align 8
  %81 = add nuw i64 %75, 1
  store i64 %81, ptr %69, align 8
  %82 = getelementptr inbounds i8, ptr %80, i64 %75
  %83 = load i8, ptr %82, align 1
  %84 = zext i8 %83 to i64
  %85 = or disjoint i64 %79, %84
  store i64 %85, ptr %72, align 8
  %86 = add nsw i32 %76, 8
  store i32 %86, ptr %2, align 8
  %87 = icmp slt i32 %76, 0
  br i1 %87, label %73, label %membr_bits.exit29, !llvm.loop !36

membr_fill.exit.thread.i28:                       ; preds = %73
  store i32 1, ptr %67, align 4
  br label %membr_bits.exit29.thread

membr_bits.exit29:                                ; preds = %78, %.membr_fill.exit_crit_edge.i20
  %88 = phi i32 [ %65, %.membr_fill.exit_crit_edge.i20 ], [ %76, %78 ]
  %89 = phi i64 [ %.pre.i22, %.membr_fill.exit_crit_edge.i20 ], [ %85, %78 ]
  store i32 %88, ptr %2, align 8
  %90 = zext nneg i32 %88 to i64
  %91 = lshr i64 %89, %90
  %92 = trunc i64 %91 to i32
  %93 = and i32 %92, 255
  %94 = icmp samesign ugt i32 %93, 15
  br i1 %94, label %membr_bits.exit19, label %membr_bits.exit29.thread

membr_bits.exit29.thread:                         ; preds = %membr_fill.exit.thread.i28, %66, %membr_bits.exit29
  %.pre.i32 = phi i64 [ %89, %membr_bits.exit29 ], [ %.pre.i22, %66 ], [ %74, %membr_fill.exit.thread.i28 ]
  %95 = phi i32 [ %88, %membr_bits.exit29 ], [ %28, %66 ], [ %76, %membr_fill.exit.thread.i28 ]
  %.0.i2462 = phi i32 [ %93, %membr_bits.exit29 ], [ 0, %66 ], [ 0, %membr_fill.exit.thread.i28 ]
  %96 = shl nuw nsw i32 %.0.i2462, 4
  %97 = icmp slt i32 %95, 4
  br i1 %97, label %98, label %membr_fill.exit.i33

98:                                               ; preds = %membr_bits.exit29.thread
  %99 = getelementptr inbounds nuw i8, ptr %0, i64 36
  %100 = load i32, ptr %99, align 4
  %.not.i35 = icmp eq i32 %100, 0
  br i1 %.not.i35, label %.lr.ph.i.i36, label %membr_bits.exit39

.lr.ph.i.i36:                                     ; preds = %98
  %101 = getelementptr inbounds nuw i8, ptr %0, i64 16
  %102 = getelementptr inbounds nuw i8, ptr %0, i64 8
  %103 = load i64, ptr %102, align 8
  %104 = getelementptr inbounds nuw i8, ptr %0, i64 24
  %.promoted13.i.i37 = load i64, ptr %101, align 8
  br label %105

105:                                              ; preds = %110, %.lr.ph.i.i36
  %106 = phi i64 [ %.pre.i32, %.lr.ph.i.i36 ], [ %117, %110 ]
  %107 = phi i64 [ %.promoted13.i.i37, %.lr.ph.i.i36 ], [ %113, %110 ]
  %108 = phi i32 [ %95, %.lr.ph.i.i36 ], [ %118, %110 ]
  %109 = icmp ult i64 %107, %103
  br i1 %109, label %110, label %membr_fill.exit.thread.i38

110:                                              ; preds = %105
  %111 = shl i64 %106, 8
  %112 = load ptr, ptr %0, align 8
  %113 = add nuw i64 %107, 1
  store i64 %113, ptr %101, align 8
  %114 = getelementptr inbounds i8, ptr %112, i64 %107
  %115 = load i8, ptr %114, align 1
  %116 = zext i8 %115 to i64
  %117 = or disjoint i64 %111, %116
  store i64 %117, ptr %104, align 8
  %118 = add nsw i32 %108, 8
  store i32 %118, ptr %2, align 8
  %119 = icmp slt i32 %108, -4
  br i1 %119, label %105, label %membr_fill.exit.i33, !llvm.loop !36

membr_fill.exit.thread.i38:                       ; preds = %105
  store i32 1, ptr %99, align 4
  br label %membr_bits.exit39

membr_fill.exit.i33:                              ; preds = %110, %membr_bits.exit29.thread
  %120 = phi i32 [ %95, %membr_bits.exit29.thread ], [ %118, %110 ]
  %121 = phi i64 [ %.pre.i32, %membr_bits.exit29.thread ], [ %117, %110 ]
  %122 = add nsw i32 %120, -4
  store i32 %122, ptr %2, align 8
  %123 = zext nneg i32 %122 to i64
  %124 = lshr i64 %121, %123
  %125 = trunc i64 %124 to i32
  %126 = and i32 %125, 15
  br label %membr_bits.exit39

membr_bits.exit39:                                ; preds = %98, %membr_fill.exit.thread.i38, %membr_fill.exit.i33
  %.0.i34 = phi i32 [ %126, %membr_fill.exit.i33 ], [ 0, %98 ], [ 0, %membr_fill.exit.thread.i38 ]
  %127 = or disjoint i32 %.0.i34, %96
  %128 = or disjoint i32 %127, -256
  br label %membr_bits.exit19

129:                                              ; preds = %membr_bits.exit
  %130 = icmp samesign ult i32 %27, 18
  br i1 %130, label %131, label %membr_fill.exit.i43

131:                                              ; preds = %129
  %132 = getelementptr inbounds nuw i8, ptr %0, i64 36
  %133 = load i32, ptr %132, align 4
  %.not.i45 = icmp eq i32 %133, 0
  br i1 %.not.i45, label %.lr.ph.i.i46, label %membr_bits.exit19

.lr.ph.i.i46:                                     ; preds = %131
  %134 = getelementptr inbounds nuw i8, ptr %0, i64 16
  %135 = getelementptr inbounds nuw i8, ptr %0, i64 8
  %136 = load i64, ptr %135, align 8
  %137 = getelementptr inbounds nuw i8, ptr %0, i64 24
  %.promoted13.i.i47 = load i64, ptr %134, align 8
  br label %138

138:                                              ; preds = %143, %.lr.ph.i.i46
  %139 = phi i64 [ %.pre.i22, %.lr.ph.i.i46 ], [ %150, %143 ]
  %140 = phi i64 [ %.promoted13.i.i47, %.lr.ph.i.i46 ], [ %146, %143 ]
  %141 = phi i32 [ %28, %.lr.ph.i.i46 ], [ %151, %143 ]
  %142 = icmp ult i64 %140, %136
  br i1 %142, label %143, label %membr_fill.exit.thread.i48

143:                                              ; preds = %138
  %144 = shl i64 %139, 8
  %145 = load ptr, ptr %0, align 8
  %146 = add nuw i64 %140, 1
  store i64 %146, ptr %134, align 8
  %147 = getelementptr inbounds i8, ptr %145, i64 %140
  %148 = load i8, ptr %147, align 1
  %149 = zext i8 %148 to i64
  %150 = or disjoint i64 %144, %149
  store i64 %150, ptr %137, align 8
  %151 = add nsw i32 %141, 8
  store i32 %151, ptr %2, align 8
  %152 = icmp slt i32 %141, 8
  br i1 %152, label %138, label %membr_fill.exit.i43, !llvm.loop !36

membr_fill.exit.thread.i48:                       ; preds = %138
  store i32 1, ptr %132, align 4
  br label %membr_bits.exit19

membr_fill.exit.i43:                              ; preds = %143, %129
  %153 = phi i32 [ %28, %129 ], [ %151, %143 ]
  %154 = phi i64 [ %.pre.i22, %129 ], [ %150, %143 ]
  %155 = add nsw i32 %153, -16
  store i32 %155, ptr %2, align 8
  %156 = zext nneg i32 %155 to i64
  %157 = lshr i64 %154, %156
  %158 = trunc i64 %157 to i32
  %159 = and i32 %158, 65535
  br label %membr_bits.exit19

default.unreachable:                              ; preds = %membr_bits.exit
  unreachable

160:                                              ; preds = %membr_bits.exit
  %161 = icmp samesign ult i32 %27, 34
  br i1 %161, label %162, label %membr_fill.exit.i53

162:                                              ; preds = %160
  %163 = getelementptr inbounds nuw i8, ptr %0, i64 36
  %164 = load i32, ptr %163, align 4
  %.not.i55 = icmp eq i32 %164, 0
  br i1 %.not.i55, label %.lr.ph.i.i56, label %membr_bits.exit19

.lr.ph.i.i56:                                     ; preds = %162
  %165 = getelementptr inbounds nuw i8, ptr %0, i64 16
  %166 = getelementptr inbounds nuw i8, ptr %0, i64 8
  %167 = load i64, ptr %166, align 8
  %168 = getelementptr inbounds nuw i8, ptr %0, i64 24
  %.promoted13.i.i57 = load i64, ptr %165, align 8
  br label %169

169:                                              ; preds = %174, %.lr.ph.i.i56
  %170 = phi i64 [ %.pre.i22, %.lr.ph.i.i56 ], [ %181, %174 ]
  %171 = phi i64 [ %.promoted13.i.i57, %.lr.ph.i.i56 ], [ %177, %174 ]
  %172 = phi i32 [ %28, %.lr.ph.i.i56 ], [ %182, %174 ]
  %173 = icmp ult i64 %171, %167
  br i1 %173, label %174, label %membr_fill.exit.thread.i58

174:                                              ; preds = %169
  %175 = shl i64 %170, 8
  %176 = load ptr, ptr %0, align 8
  %177 = add nuw i64 %171, 1
  store i64 %177, ptr %165, align 8
  %178 = getelementptr inbounds i8, ptr %176, i64 %171
  %179 = load i8, ptr %178, align 1
  %180 = zext i8 %179 to i64
  %181 = or disjoint i64 %175, %180
  store i64 %181, ptr %168, align 8
  %182 = add nsw i32 %172, 8
  store i32 %182, ptr %2, align 8
  %183 = icmp slt i32 %172, 24
  br i1 %183, label %169, label %membr_fill.exit.i53, !llvm.loop !36

membr_fill.exit.thread.i58:                       ; preds = %169
  store i32 1, ptr %163, align 4
  br label %membr_bits.exit19

membr_fill.exit.i53:                              ; preds = %174, %160
  %184 = phi i32 [ %28, %160 ], [ %182, %174 ]
  %185 = phi i64 [ %.pre.i22, %160 ], [ %181, %174 ]
  %186 = add nsw i32 %184, -32
  store i32 %186, ptr %2, align 8
  %187 = zext nneg i32 %186 to i64
  %188 = lshr i64 %185, %187
  %189 = trunc i64 %188 to i32
  br label %membr_bits.exit19

membr_bits.exit19:                                ; preds = %membr_fill.exit.i53, %membr_fill.exit.thread.i58, %162, %membr_fill.exit.i43, %membr_fill.exit.thread.i48, %131, %membr_fill.exit.i13, %membr_fill.exit.thread.i18, %membr_bits.exit.thread.thread, %membr_bits.exit29, %membr_bits.exit39
  %.0 = phi i32 [ %128, %membr_bits.exit39 ], [ %93, %membr_bits.exit29 ], [ %62, %membr_fill.exit.i13 ], [ 0, %membr_bits.exit.thread.thread ], [ 0, %membr_fill.exit.thread.i18 ], [ %159, %membr_fill.exit.i43 ], [ 0, %131 ], [ 0, %membr_fill.exit.thread.i48 ], [ %189, %membr_fill.exit.i53 ], [ 0, %162 ], [ 0, %membr_fill.exit.thread.i58 ]
  ret i32 %.0
}